target datalayout = "e-m:e-p270:32:32-p271:32:32-p272:64:64-i64:64-i128:128-f80:128-n8:16:32:64-S128"
target triple = "x86_64-pc-linux-gnu"

@_ZL10nullString = internal global ptr @.str.74, align 8

; Function Attrs: inlinehint mustprogress nounwind uwtable
define internal noundef signext i8 @_ZL9U_SUCCESS10UErrorCode(i32 noundef %0) #2 {
  %2 = alloca i32, align 4
  store i32 %0, ptr %2, align 4, !tbaa !15
  %3 = load i32, ptr %2, align 4, !tbaa !15
  %4 = icmp sle i32 %3, 0
  %5 = zext i1 %4 to i8
  ret i8 %5
}

; Function Attrs: mustprogress uwtable
define internal noundef i32 @_ZL20stringToStringBufferPciPKcP10UErrorCode(ptr noundef %0, i32 noundef %1, ptr noundef %2, ptr noundef %3) #1 {
  %5 = alloca ptr, align 8
  %6 = alloca i32, align 4
  %7 = alloca ptr, align 8
  %8 = alloca ptr, align 8
  %9 = alloca i32, align 4
  %10 = alloca ptr, align 8
  store ptr %0, ptr %5, align 8, !tbaa !17
  store i32 %1, ptr %6, align 4, !tbaa !14
  store ptr %2, ptr %7, align 8, !tbaa !17
  store ptr %3, ptr %8, align 8, !tbaa !22
  %11 = load ptr, ptr %7, align 8, !tbaa !17
  %12 = icmp eq ptr %11, null
  br i1 %12, label %13, label %15

13:                                               ; preds = %4
  %14 = load ptr, ptr @_ZL10nullString, align 8, !tbaa !17
  store ptr %14, ptr %7, align 8, !tbaa !17
  br label %15

15:                                               ; preds = %13, %4
  call void @llvm.lifetime.start.p0(i64 4, ptr %9) #13
  %16 = load ptr, ptr %7, align 8, !tbaa !17
  %17 = call i64 @strlen(ptr noundef %16) #21
  %18 = trunc i64 %17 to i32
  store i32 %18, ptr %9, align 4, !tbaa !14
  %19 = load ptr, ptr %8, align 8, !tbaa !22
  %20 = load i32, ptr %19, align 4, !tbaa !15
  %21 = call noundef signext i8 @_ZL9U_SUCCESS10UErrorCode(i32 noundef %20)
  %22 = icmp ne i8 %21, 0
  br i1 %22, label %23, label %35

23:                                               ; preds = %15
  %24 = load ptr, ptr %5, align 8, !tbaa !17
  %25 = icmp ne ptr %24, null
  br i1 %25, label %26, label %34

26:                                               ; preds = %23
  %27 = load ptr, ptr %5, align 8, !tbaa !17
  %28 = load ptr, ptr %7, align 8, !tbaa !17
  %29 = load i32, ptr %9, align 4, !tbaa !14
  %30 = load i32, ptr %6, align 4, !tbaa !14
  %31 = call i32 @uprv_min_77(i32 noundef %29, i32 noundef %30)
  %32 = sext i32 %31 to i64
  %33 = call ptr @strncpy(ptr noundef %27, ptr noundef %28, i64 noundef %32) #13
  br label %34

34:                                               ; preds = %26, %23
  br label %53

35:                                               ; preds = %15
  call void @llvm.lifetime.start.p0(i64 8, ptr %10) #13
  %36 = load ptr, ptr %8, align 8, !tbaa !22
  %37 = load i32, ptr %36, align 4, !tbaa !15
  %38 = call ptr @u_errorName_77(i32 noundef %37)
  store ptr %38, ptr %10, align 8, !tbaa !17
  %39 = load ptr, ptr %10, align 8, !tbaa !17
  %40 = call i64 @strlen(ptr noundef %39) #21
  %41 = trunc i64 %40 to i32
  store i32 %41, ptr %9, align 4, !tbaa !14
  %42 = load ptr, ptr %5, align 8, !tbaa !17
  %43 = icmp ne ptr %42, null
  br i1 %43, label %44, label %52

44:                                               ; preds = %35
  %45 = load ptr, ptr %5, align 8, !tbaa !17
  %46 = load ptr, ptr %10, align 8, !tbaa !17
  %47 = load i32, ptr %9, align 4, !tbaa !14
  %48 = load i32, ptr %6, align 4, !tbaa !14
  %49 = call i32 @uprv_min_77(i32 noundef %47, i32 noundef %48)
  %50 = sext i32 %49 to i64
  %51 = call ptr @strncpy(ptr noundef %45, ptr noundef %46, i64 noundef %50) #13
  br label %52

52:                                               ; preds = %44, %35
  call void @llvm.lifetime.end.p0(i64 8, ptr %10) #13
  br label %53

53:                                               ; preds = %52, %34
  %54 = load ptr, ptr %5, align 8, !tbaa !17
  %55 = load i32, ptr %6, align 4, !tbaa !14
  %56 = load i32, ptr %9, align 4, !tbaa !14
  %57 = load ptr, ptr %8, align 8, !tbaa !22
  %58 = call i32 @u_terminateChars_77(ptr noundef %54, i32 noundef %55, i32 noundef %56, ptr noundef %57)
  call void @llvm.lifetime.end.p0(i64 4, ptr %9) #13
  ret i32 %58
}

; Function Attrs: mustprogress uwtable
define i32 @paramIcudataPath(ptr noundef %0, ptr noundef %1, i32 noundef %2, ptr noundef %3) #1 {
  %5 = alloca ptr, align 8
  %6 = alloca ptr, align 8
  %7 = alloca i32, align 4
  %8 = alloca ptr, align 8
  store ptr %0, ptr %5, align 8, !tbaa !35
  store ptr %1, ptr %6, align 8, !tbaa !17
  store i32 %2, ptr %7, align 4, !tbaa !14
  store ptr %3, ptr %8, align 8, !tbaa !22
  %9 = load ptr, ptr %6, align 8, !tbaa !17
  %10 = load i32, ptr %7, align 4, !tbaa !14
  %11 = call ptr @u_getDataDirectory_77()
  %12 = load ptr, ptr %8, align 8, !tbaa !22
  %13 = call noundef i32 @_ZL20stringToStringBufferPciPKcP10UErrorCode(ptr noundef %9, i32 noundef %10, ptr noundef %11, ptr noundef %12)
  ret i32 %13
}